(dp1
S'files'
p2
(dp3
S'scenes_config_menu'
p4
(dp5
S'index'
p6
(dp7
S'html_filename'
p8
S'scenes_config_menu.html'
p9
sS'name'
p10
S'scenes/config_menu'
p11
sS'nums'
p12
ccopy_reg
_reconstructor
p13
(ccoverage.results
Numbers
p14
c__builtin__
object
p15
NtRp16
(dp17
S'n_files'
p18
I1
sS'n_branches'
p19
I0
sS'n_statements'
p20
I85
sS'n_excluded'
p21
I1
sS'n_partial_branches'
p22
I0
sS'n_missing'
p23
I85
sS'n_missing_branches'
p24
I0
sbssS'hash'
p25
S'x\xa0\x87\x7f\x84\xfa^M3Y\x88\x89\x9dM\x1ed'
p26
ssS'game_elements_player'
p27
(dp28
g6
(dp29
g8
S'game_elements_player.html'
p30
sg10
S'game_elements/player'
p31
sg12
g13
(g14
g15
NtRp32
(dp33
g18
I1
sg19
I0
sg20
I34
sg21
I2
sg22
I0
sg23
I0
sg24
I0
sbssg25
S"\xb7\x04UU\xc8aJ'>P\xe3\x1c,\xd1:\xf1"
p34
ssS'consts_pieces'
p35
(dp36
g6
(dp37
g8
S'consts_pieces.html'
p38
sg10
S'consts/pieces'
p39
sg12
g13
(g14
g15
NtRp40
(dp41
g18
I1
sg19
I0
sg20
I7
sg21
I0
sg22
I0
sg23
I0
sg24
I0
sbssg25
S'\xbb\xc4\xd2Z{\xe6\xc4ne\x14y\x96b\xaf\xea\x8c'
p42
ssS'tests_test_pawn'
p43
(dp44
g6
(dp45
g8
S'tests_test_pawn.html'
p46
sg10
S'tests/test_pawn'
p47
sg12
g13
(g14
g15
NtRp48
(dp49
g18
I1
sg19
I0
sg20
I132
sg21
I25
sg22
I0
sg23
I0
sg24
I0
sbssg25
S'L\x98\xedK8RF\x86iU\xfb\xb7\xfe\x83c+'
p50
ssS'timers_minutes_per_game'
p51
(dp52
g6
(dp53
g8
S'timers_minutes_per_game.html'
p54
sg10
S'timers/minutes_per_game'
p55
sg12
g13
(g14
g15
NtRp56
(dp57
g18
I1
sg19
I0
sg20
I18
sg21
I0
sg22
I0
sg23
I18
sg24
I0
sbssg25
S';\x02>\x02\x89j\x87d\xa6\xa4GS\xb0\x81k\xf9'
p58
ssS'tests_test_king'
p59
(dp60
g6
(dp61
g8
S'tests_test_king.html'
p62
sg10
S'tests/test_king'
p63
sg12
g13
(g14
g15
NtRp64
(dp65
g18
I1
sg19
I0
sg20
I248
sg21
I1
sg22
I0
sg23
I0
sg24
I0
sbssg25
S'\x83\xc7\xbd\x83\x0f\xcd\xe3\xe8I\xa9\x9a&\x19\xb0qw'
p66
ssS'tests_test_knight'
p67
(dp68
g6
(dp69
g8
S'tests_test_knight.html'
p70
sg10
S'tests/test_knight'
p71
sg12
g13
(g14
g15
NtRp72
(dp73
g18
I1
sg19
I0
sg20
I56
sg21
I1
sg22
I0
sg23
I0
sg24
I0
sbssg25
S'\xf5-\xccx\xeb\xfd\xa2\xbe\xef[x\xd6\xfc\x9e\x15:'
p74
ssS'game_elements___init__'
p75
(dp76
g6
(dp77
g8
S'game_elements___init__.html'
p78
sg10
S'game_elements/__init__'
p79
sg12
g13
(g14
g15
NtRp80
(dp81
g18
I1
sg19
I0
sg20
I9
sg21
I0
sg22
I0
sg23
I3
sg24
I0
sbssg25
S'O\xfd\xc7o\xd4\x9ancz(S\x04\xc4\xa0A\xdd'
p82
ssS'cython_chess0x88'
p83
(dp84
g6
(dp85
g8
S'cython_chess0x88.html'
p86
sg10
S'cython/chess0x88'
p87
sg12
g13
(g14
g15
NtRp88
(dp89
g18
I1
sg19
I0
sg20
I2
sg21
I0
sg22
I0
sg23
I0
sg24
I0
sbssg25
S'\xec\xcd\xef\x88\xca\xd8h\xff\xc6\xb2fc\xbal(\xf5'
p90
ssS'cython___init__'
p91
(dp92
g6
(dp93
g8
S'cython___init__.html'
p94
sg10
S'cython/__init__'
p95
sg12
g13
(g14
g15
NtRp96
(dp97
g18
I1
sg19
I0
sg20
I0
sg21
I0
sg22
I0
sg23
I0
sg24
I0
sbssg25
S'\xca\xf5\x9f\x7f\x88\xdfa\x831|T\x1d\xbc}\xa5v'
p98
ssS'run_tests'
p99
(dp100
g6
(dp101
g8
S'run_tests.html'
p102
sg10
g99
sg12
g13
(g14
g15
NtRp103
(dp104
g18
I1
sg19
I0
sg20
I5
sg21
I0
sg22
I0
sg23
I0
sg24
I0
sbssg25
S'\xc5\xec\xc1\xd9\xd0An\xa8\xf6\x06\xbf\xbc\x88\x1daQ'
p105
ssS'scenes_interfaces_main_menu_interface'
p106
(dp107
g6
(dp108
g8
S'scenes_interfaces_main_menu_interface.html'
p109
sg10
S'scenes/interfaces/main_menu_interface'
p110
sg12
g13
(g14
g15
NtRp111
(dp112
g18
I1
sg19
I0
sg20
I8
sg21
I0
sg22
I0
sg23
I8
sg24
I0
sbssg25
S"\xab\x86gA\xb2HV\xc2UH\x07\x1b\xbc\x13'\x13"
p113
ssS'scenes_interfaces_end_menu_interface'
p114
(dp115
g6
(dp116
g8
S'scenes_interfaces_end_menu_interface.html'
p117
sg10
S'scenes/interfaces/end_menu_interface'
p118
sg12
g13
(g14
g15
NtRp119
(dp120
g18
I1
sg19
I0
sg20
I9
sg21
I0
sg22
I0
sg23
I9
sg24
I0
sbssg25
S'F\x8fBLEE\x05\x1ar\xdb\xefIJ\x01\xfa8'
p121
ssS'cython_utils___init__'
p122
(dp123
g6
(dp124
g8
S'cython_utils___init__.html'
p125
sg10
S'cython/utils/__init__'
p126
sg12
g13
(g14
g15
NtRp127
(dp128
g18
I1
sg19
I0
sg20
I0
sg21
I0
sg22
I0
sg23
I0
sg24
I0
sbssg25
S'\xca\xf5\x9f\x7f\x88\xdfa\x831|T\x1d\xbc}\xa5v'
p129
ssS'scenes_elements_button_group'
p130
(dp131
g6
(dp132
g8
S'scenes_elements_button_group.html'
p133
sg10
S'scenes/elements/button_group'
p134
sg12
g13
(g14
g15
NtRp135
(dp136
g18
I1
sg19
I0
sg20
I55
sg21
I0
sg22
I0
sg23
I55
sg24
I0
sbssg25
S'\x8b\xf0\x0c\xe0\xc9\xd6\x03H\xf3\x18\xb4\xacZ\x89\xfe\x16'
p137
ssS'tests_test_cython_functions'
p138
(dp139
g6
(dp140
g8
S'tests_test_cython_functions.html'
p141
sg10
S'tests/test_cython_functions'
p142
sg12
g13
(g14
g15
NtRp143
(dp144
g18
I1
sg19
I0
sg20
I25
sg21
I1
sg22
I0
sg23
I0
sg24
I0
sbssg25
S'f\x8d\xf2\xc1zcO\xa5Z}\xed\xda\xe3\xe4\xc6h'
p145
ssS'scenes_interfaces_pause_menu_interface'
p146
(dp147
g6
(dp148
g8
S'scenes_interfaces_pause_menu_interface.html'
p149
sg10
S'scenes/interfaces/pause_menu_interface'
p150
sg12
g13
(g14
g15
NtRp151
(dp152
g18
I1
sg19
I0
sg20
I8
sg21
I0
sg22
I0
sg23
I8
sg24
I0
sbssg25
S'\xeb_\xfa\xd2\xe6Q\x8d\x9d{\x05\x8a|\xa4]\xff\xd3'
p153
ssS'tests_test_rook'
p154
(dp155
g6
(dp156
g8
S'tests_test_rook.html'
p157
sg10
S'tests/test_rook'
p158
sg12
g13
(g14
g15
NtRp159
(dp160
g18
I1
sg19
I0
sg20
I66
sg21
I0
sg22
I0
sg23
I0
sg24
I0
sbssg25
S'\xa8\xf7\x8a3\xba\x9eC\xea\x8d\xd8` \xd6)\x87\x03'
p161
ssS'cython_setup'
p162
(dp163
g6
(dp164
g8
S'cython_setup.html'
p165
sg10
S'cython/setup'
p166
sg12
g13
(g14
g15
NtRp167
(dp168
g18
I1
sg19
I0
sg20
I22
sg21
I1
sg22
I0
sg23
I22
sg24
I0
sbssg25
S'\xc3l@a\x7fP\x91\xae\x95\xd4s\xd0\xdbS\x92C'
p169
ssS'scenes_base'
p170
(dp171
g6
(dp172
g8
S'scenes_base.html'
p173
sg10
S'scenes/base'
p174
sg12
g13
(g14
g15
NtRp175
(dp176
g18
I1
sg19
I0
sg20
I56
sg21
I6
sg22
I0
sg23
I56
sg24
I0
sbssg25
S'\xa4\xc2\x16WOI\xf3\x91\xab\xeb\x0e)\xf3\x1as&'
p177
ssS'timers___init__'
p178
(dp179
g6
(dp180
g8
S'timers___init__.html'
p181
sg10
S'timers/__init__'
p182
sg12
g13
(g14
g15
NtRp183
(dp184
g18
I1
sg19
I0
sg20
I1
sg21
I0
sg22
I0
sg23
I1
sg24
I0
sbssg25
S'[e\xad\xe9\xf33>i\xf3\xb6\xaf\x9dp9w\x82'
p185
ssS'scenes_chess'
p186
(dp187
g6
(dp188
g8
S'scenes_chess.html'
p189
sg10
S'scenes/chess'
p190
sg12
g13
(g14
g15
NtRp191
(dp192
g18
I1
sg19
I0
sg20
I185
sg21
I0
sg22
I0
sg23
I185
sg24
I0
sbssg25
S'\xce4+g\xf4\xc1\xca!0\x0c\xa4\x8f\xee\xe9\x84\xdd'
p193
ssS'scenes_interfaces_dialog_interface'
p194
(dp195
g6
(dp196
g8
S'scenes_interfaces_dialog_interface.html'
p197
sg10
S'scenes/interfaces/dialog_interface'
p198
sg12
g13
(g14
g15
NtRp199
(dp200
g18
I1
sg19
I0
sg20
I8
sg21
I0
sg22
I0
sg23
I8
sg24
I0
sbssg25
S'\xfex.EC%d\xec`\xf1\xdfX\xcf:B\xb1'
p201
ssS'scenes_pause_menu'
p202
(dp203
g6
(dp204
g8
S'scenes_pause_menu.html'
p205
sg10
S'scenes/pause_menu'
p206
sg12
g13
(g14
g15
NtRp207
(dp208
g18
I1
sg19
I0
sg20
I46
sg21
I0
sg22
I0
sg23
I46
sg24
I0
sbssg25
S'3(4\x9b\xf8\xc0\x13\x13<|\xfe\x172\xfdM\xe2'
p209
ssS'__init__'
p210
(dp211
g6
(dp212
g8
S'__init__.html'
p213
sg10
g210
sg12
g13
(g14
g15
NtRp214
(dp215
g18
I1
sg19
I0
sg20
I0
sg21
I0
sg22
I0
sg23
I0
sg24
I0
sbssg25
S'\xe5P\x11)^\xf4>1D.\x0e\x0b\xa1\xf8[+'
p216
ssS'consts_moves'
p217
(dp218
g6
(dp219
g8
S'consts_moves.html'
p220
sg10
S'consts/moves'
p221
sg12
g13
(g14
g15
NtRp222
(dp223
g18
I1
sg19
I0
sg20
I13
sg21
I2
sg22
I0
sg23
I0
sg24
I0
sbssg25
S'\xbf\xc0\x87\xea\xa8Eur\x10\xc7P\xeb\xe4Z\xd4<'
p224
ssS'tests_test_queen'
p225
(dp226
g6
(dp227
g8
S'tests_test_queen.html'
p228
sg10
S'tests/test_queen'
p229
sg12
g13
(g14
g15
NtRp230
(dp231
g18
I1
sg19
I0
sg20
I72
sg21
I0
sg22
I0
sg23
I0
sg24
I0
sbssg25
S'w\x02/L#C\x8e$.\x13v \xa6E\xc1r'
p232
ssS'scenes_interfaces_config_menu_interface'
p233
(dp234
g6
(dp235
g8
S'scenes_interfaces_config_menu_interface.html'
p236
sg10
S'scenes/interfaces/config_menu_interface'
p237
sg12
g13
(g14
g15
NtRp238
(dp239
g18
I1
sg19
I0
sg20
I9
sg21
I0
sg22
I0
sg23
I9
sg24
I0
sbssg25
S'^*\xfc\x05\xb4\x03%W,\xb3S\xd1E\xfcl2'
p240
ssS'timers_moves_per_minute'
p241
(dp242
g6
(dp243
g8
S'timers_moves_per_minute.html'
p244
sg10
S'timers/moves_per_minute'
p245
sg12
g13
(g14
g15
NtRp246
(dp247
g18
I1
sg19
I0
sg20
I22
sg21
I0
sg22
I0
sg23
I22
sg24
I0
sbssg25
S"\x12\x1b\xac\x80\xfb\x98N\xed\xbb\x04\xa4\xd0\xd7'W\xf0"
p248
ssS'consts_default'
p249
(dp250
g6
(dp251
g8
S'consts_default.html'
p252
sg10
S'consts/default'
p253
sg12
g13
(g14
g15
NtRp254
(dp255
g18
I1
sg19
I0
sg20
I14
sg21
I0
sg22
I0
sg23
I14
sg24
I0
sbssg25
S';\x97B\xedG\x8d\xd4\x94\xc1"F\xe9\'W\xf1\xf3'
p256
ssS'game_elements_ai_player'
p257
(dp258
g6
(dp259
g8
S'game_elements_ai_player.html'
p260
sg10
S'game_elements/ai_player'
p261
sg12
g13
(g14
g15
NtRp262
(dp263
g18
I1
sg19
I0
sg20
I131
sg21
I3
sg22
I0
sg23
I11
sg24
I0
sbssg25
S'\xfb#g\x01\xfd\xc5\x828\x9bNh\x83 \x1c\xe03'
p264
ssS'scenes_elements_game_text_element'
p265
(dp266
g6
(dp267
g8
S'scenes_elements_game_text_element.html'
p268
sg10
S'scenes/elements/game_text_element'
p269
sg12
g13
(g14
g15
NtRp270
(dp271
g18
I1
sg19
I0
sg20
I88
sg21
I0
sg22
I0
sg23
I88
sg24
I0
sbssg25
S'5\xf2:(\xbf\xbez\x82\xc8\xd0\xab\xe6\xe5\xa7\xea\xc4'
p272
ssS'cython_move'
p273
(dp274
g6
(dp275
g8
S'cython_move.html'
p276
sg10
S'cython/move'
p277
sg12
g13
(g14
g15
NtRp278
(dp279
g18
I1
sg19
I0
sg20
I189
sg21
I17
sg22
I0
sg23
I24
sg24
I0
sbssg25
S'\xab\x12\x10\x1aN\x80\xe0}_O\x86\r\xf0=\xd9\x96'
p280
ssS'cython_zobrist'
p281
(dp282
g6
(dp283
g8
S'cython_zobrist.html'
p284
sg10
S'cython/zobrist'
p285
sg12
g13
(g14
g15
NtRp286
(dp287
g18
I1
sg19
I0
sg20
I21
sg21
I2
sg22
I0
sg23
I0
sg24
I0
sbssg25
S'\xb4A\xa1o`\x19\xa5\xf6\xfb\xb3*B\x12!\x91\r'
p288
ssS'cython_constants'
p289
(dp290
g6
(dp291
g8
S'cython_constants.html'
p292
sg10
S'cython/constants'
p293
sg12
g13
(g14
g15
NtRp294
(dp295
g18
I1
sg19
I0
sg20
I53
sg21
I0
sg22
I0
sg23
I0
sg24
I0
sbssg25
S'\x81\x1b\x86\xc7\x15I\r\xbd\xa0\x9f\x02Z\xf9\xdd\xd4k'
p296
ssS'scenes_elements_snap_element'
p297
(dp298
g6
(dp299
g8
S'scenes_elements_snap_element.html'
p300
sg10
S'scenes/elements/snap_element'
p301
sg12
g13
(g14
g15
NtRp302
(dp303
g18
I1
sg19
I0
sg20
I33
sg21
I0
sg22
I0
sg23
I33
sg24
I0
sbssg25
S'\xf2\x93\xf2\x10\xe0\x1bpl\xc6\xe6\xe1\x90\xae}/\xda'
p304
ssS'scenes_elements___init__'
p305
(dp306
g6
(dp307
g8
S'scenes_elements___init__.html'
p308
sg10
S'scenes/elements/__init__'
p309
sg12
g13
(g14
g15
NtRp310
(dp311
g18
I1
sg19
I0
sg20
I14
sg21
I0
sg22
I0
sg23
I14
sg24
I0
sbssg25
S'\xa5\x85\xcfe\xb1\x06\xae\xf6\xba\xc2mZ:\xd5\xa2\x07'
p312
ssS'tests_test_bishop'
p313
(dp314
g6
(dp315
g8
S'tests_test_bishop.html'
p316
sg10
S'tests/test_bishop'
p317
sg12
g13
(g14
g15
NtRp318
(dp319
g18
I1
sg19
I0
sg20
I48
sg21
I0
sg22
I0
sg23
I0
sg24
I0
sbssg25
S'\xa9J\xccm\xffl7Fu!\xc2U\xeaH\xf3n'
p320
ssS'scenes_elements_square_element'
p321
(dp322
g6
(dp323
g8
S'scenes_elements_square_element.html'
p324
sg10
S'scenes/elements/square_element'
p325
sg12
g13
(g14
g15
NtRp326
(dp327
g18
I1
sg19
I0
sg20
I35
sg21
I0
sg22
I0
sg23
I35
sg24
I0
sbssg25
S'\xe3\xd8\xa6\xab\xb3/[\x127\xdb\x13\x8c\xca`\xeb\x06'
p328
ssS'scenes_elements_list_option_element'
p329
(dp330
g6
(dp331
g8
S'scenes_elements_list_option_element.html'
p332
sg10
S'scenes/elements/list_option_element'
p333
sg12
g13
(g14
g15
NtRp334
(dp335
g18
I1
sg19
I0
sg20
I31
sg21
I0
sg22
I0
sg23
I31
sg24
I0
sbssg25
S'\r;\x1c\x8a\xed\xd1\xbc\xba\xb7\x1cV\xa2O\x98vB'
p336
ssS'scenes_interfaces_interface'
p337
(dp338
g6
(dp339
g8
S'scenes_interfaces_interface.html'
p340
sg10
S'scenes/interfaces/interface'
p341
sg12
g13
(g14
g15
NtRp342
(dp343
g18
I1
sg19
I0
sg20
I14
sg21
I2
sg22
I0
sg23
I14
sg24
I0
sbssg25
S'\r\x93&t(\x1fR\xdc:\xfb\x9f\xa0\xe6\xe1a\xf8'
p344
ssS'cython_functions'
p345
(dp346
g6
(dp347
g8
S'cython_functions.html'
p348
sg10
S'cython/functions'
p349
sg12
g13
(g14
g15
NtRp350
(dp351
g18
I1
sg19
I0
sg20
I18
sg21
I0
sg22
I0
sg23
I0
sg24
I0
sbssg25
S'\x15+G\xee\x14\x9b\xdc\xc0/\xc9b\xf6\x13\x83B\xaf'
p352
ssS'scenes_elements_image_element'
p353
(dp354
g6
(dp355
g8
S'scenes_elements_image_element.html'
p356
sg10
S'scenes/elements/image_element'
p357
sg12
g13
(g14
g15
NtRp358
(dp359
g18
I1
sg19
I0
sg20
I20
sg21
I0
sg22
I0
sg23
I20
sg24
I0
sbssg25
S'd\x87$o\xa4\x92~d^l\xb4\xa2\xae\x1c\xc2d'
p360
ssS'scenes_interfaces_chess_interface'
p361
(dp362
g6
(dp363
g8
S'scenes_interfaces_chess_interface.html'
p364
sg10
S'scenes/interfaces/chess_interface'
p365
sg12
g13
(g14
g15
NtRp366
(dp367
g18
I1
sg19
I0
sg20
I60
sg21
I0
sg22
I0
sg23
I60
sg24
I0
sbssg25
S'@0)\xa8\x0cV\xa7\xbc\x1b9nmA\xd8\xfc\xbd'
p368
ssS'scenes_elements_debug_element'
p369
(dp370
g6
(dp371
g8
S'scenes_elements_debug_element.html'
p372
sg10
S'scenes/elements/debug_element'
p373
sg12
g13
(g14
g15
NtRp374
(dp375
g18
I1
sg19
I0
sg20
I6
sg21
I0
sg22
I0
sg23
I6
sg24
I0
sbssg25
S'R\x13\xde1\xd6\xdcz\xf0\xbf\xc1\xf8S$\xd0\xcd\x03'
p376
ssS'scenes_elements_game_div'
p377
(dp378
g6
(dp379
g8
S'scenes_elements_game_div.html'
p380
sg10
S'scenes/elements/game_div'
p381
sg12
g13
(g14
g15
NtRp382
(dp383
g18
I1
sg19
I0
sg20
I54
sg21
I3
sg22
I0
sg23
I54
sg24
I0
sbssg25
S'\xa4\xdf04\x92.L\xeaU\xa9K\x91\xb8\xdc@\xec'
p384
ssS'scenes_interfaces_menu_interface'
p385
(dp386
g6
(dp387
g8
S'scenes_interfaces_menu_interface.html'
p388
sg10
S'scenes/interfaces/menu_interface'
p389
sg12
g13
(g14
g15
NtRp390
(dp391
g18
I1
sg19
I0
sg20
I24
sg21
I0
sg22
I0
sg23
I24
sg24
I0
sbssg25
S'3\x18\x940t\xfc\xde\xa8\xfc\xb4\xa7\x17\xb4\xb1\x98\xc3'
p392
ssS'scenes_elements_tree_element'
p393
(dp394
g6
(dp395
g8
S'scenes_elements_tree_element.html'
p396
sg10
S'scenes/elements/tree_element'
p397
sg12
g13
(g14
g15
NtRp398
(dp399
g18
I1
sg19
I0
sg20
I39
sg21
I0
sg22
I0
sg23
I39
sg24
I0
sbssg25
S'Q\xa8v\xc4E\xe5\xcd$\xe4n\xfaN?\x07\x89\xf2'
p400
ssS'cython_utils_pyx_replace'
p401
(dp402
g6
(dp403
g8
S'cython_utils_pyx_replace.html'
p404
sg10
S'cython/utils/pyx_replace'
p405
sg12
g13
(g14
g15
NtRp406
(dp407
g18
I1
sg19
I0
sg20
I58
sg21
I0
sg22
I0
sg23
I48
sg24
I0
sbssg25
S'X\xcd\x10\xc0M\xeaV\xe9\x97\xfd\xe1\xeeT^\x9d '
p408
ssS'game'
p409
(dp410
g6
(dp411
g8
S'game.html'
p412
sg10
g409
sg12
g13
(g14
g15
NtRp413
(dp414
g18
I1
sg19
I0
sg20
I41
sg21
I0
sg22
I0
sg23
I41
sg24
I0
sbssg25
S'\xa7\xcc\x80\xafo\xc1\x9f\x87m\xcc\x0c^\x1a\xf1\x8aB'
p415
ssS'scenes_dialog'
p416
(dp417
g6
(dp418
g8
S'scenes_dialog.html'
p419
sg10
S'scenes/dialog'
p420
sg12
g13
(g14
g15
NtRp421
(dp422
g18
I1
sg19
I0
sg20
I35
sg21
I0
sg22
I0
sg23
I35
sg24
I0
sbssg25
S'V\xccT\xf7|=\xcblk\xe9\xc5P\x7f\xeb\x04}'
p423
ssS'scenes___init__'
p424
(dp425
g6
(dp426
g8
S'scenes___init__.html'
p427
sg10
S'scenes/__init__'
p428
sg12
g13
(g14
g15
NtRp429
(dp430
g18
I1
sg19
I0
sg20
I1
sg21
I0
sg22
I0
sg23
I1
sg24
I0
sbssg25
S'[e\xad\xe9\xf33>i\xf3\xb6\xaf\x9dp9w\x82'
p431
ssS'tests_test_player'
p432
(dp433
g6
(dp434
g8
S'tests_test_player.html'
p435
sg10
S'tests/test_player'
p436
sg12
g13
(g14
g15
NtRp437
(dp438
g18
I1
sg19
I0
sg20
I182
sg21
I2
sg22
I0
sg23
I0
sg24
I0
sbssg25
S'dB\xe8\xbe\xc3\xaa\x0f\x0c\x82\x16-\x8f\x8a#\x96\x9f'
p439
ssS'scenes_elements_chess_element'
p440
(dp441
g6
(dp442
g8
S'scenes_elements_chess_element.html'
p443
sg10
S'scenes/elements/chess_element'
p444
sg12
g13
(g14
g15
NtRp445
(dp446
g18
I1
sg19
I0
sg20
I5
sg21
I0
sg22
I0
sg23
I5
sg24
I0
sbssg25
S'/sE\x13p)XB\x8eO\xe4tm\xc9C,'
p447
ssS'timers_fischer_game'
p448
(dp449
g6
(dp450
g8
S'timers_fischer_game.html'
p451
sg10
S'timers/fischer_game'
p452
sg12
g13
(g14
g15
NtRp453
(dp454
g18
I1
sg19
I0
sg20
I11
sg21
I0
sg22
I0
sg23
I11
sg24
I0
sbssg25
S'\x9e\x02\xc6k\xc2\t\x12Kdtj\x95\x1d\xdf*#'
p455
ssS'consts___init__'
p456
(dp457
g6
(dp458
g8
S'consts___init__.html'
p459
sg10
S'consts/__init__'
p460
sg12
g13
(g14
g15
NtRp461
(dp462
g18
I1
sg19
I0
sg20
I1
sg21
I0
sg22
I0
sg23
I0
sg24
I0
sbssg25
S'A\xa4/\xb0"\xd4Y\xc1\xa8yK\xd9\xbe\xa2\t\xa1'
p463
ssS'cython_importer'
p464
(dp465
g6
(dp466
g8
S'cython_importer.html'
p467
sg10
S'cython/importer'
p468
sg12
g13
(g14
g15
NtRp469
(dp470
g18
I1
sg19
I0
sg20
I18
sg21
I0
sg22
I0
sg23
I8
sg24
I0
sbssg25
S'\xc3\xd2_K\xbc\xb9Z\x19c\xef\xa6o\x01\x16(&'
p471
ssS'consts_end_game'
p472
(dp473
g6
(dp474
g8
S'consts_end_game.html'
p475
sg10
S'consts/end_game'
p476
sg12
g13
(g14
g15
NtRp477
(dp478
g18
I1
sg19
I0
sg20
I12
sg21
I0
sg22
I0
sg23
I0
sg24
I0
sbssg25
S'K\xe4\x02AF\x15\xe2\xccV\x92\x00*\xb3\xeb\xd7\xe3'
p479
ssS'scenes_elements_number_option_element'
p480
(dp481
g6
(dp482
g8
S'scenes_elements_number_option_element.html'
p483
sg10
S'scenes/elements/number_option_element'
p484
sg12
g13
(g14
g15
NtRp485
(dp486
g18
I1
sg19
I0
sg20
I32
sg21
I0
sg22
I0
sg23
I32
sg24
I0
sbssg25
S'\x04\xfe\xe4\xb81m\x03\x9bm\xf9J\x9f(\xf9\x9c\xd1'
p487
ssS'consts_i18n'
p488
(dp489
g6
(dp490
g8
S'consts_i18n.html'
p491
sg10
S'consts/i18n'
p492
sg12
g13
(g14
g15
NtRp493
(dp494
g18
I1
sg19
I0
sg20
I44
sg21
I0
sg22
I0
sg23
I44
sg24
I0
sbssg25
S'5\x91\x9a>K*\x82\xfd\xc7\x00\x10\xea/d\xc5&'
p495
ssS'scenes_main_menu'
p496
(dp497
g6
(dp498
g8
S'scenes_main_menu.html'
p499
sg10
S'scenes/main_menu'
p500
sg12
g13
(g14
g15
NtRp501
(dp502
g18
I1
sg19
I0
sg20
I45
sg21
I0
sg22
I0
sg23
I45
sg24
I0
sbssg25
S'+\x19\xec\xa0\xe1\x80v\xa6\x04#\xe6H`\xbdT\x86'
p503
ssS'tests___init__'
p504
(dp505
g6
(dp506
g8
S'tests___init__.html'
p507
sg10
S'tests/__init__'
p508
sg12
g13
(g14
g15
NtRp509
(dp510
g18
I1
sg19
I0
sg20
I12
sg21
I0
sg22
I0
sg23
I0
sg24
I0
sbssg25
S'\xd6w\xff&\xe2\xb2\xf1\x0b\x96\x88\xf2WPI0\xcd'
p511
ssS'cython_utils_fake_cython'
p512
(dp513
g6
(dp514
g8
S'cython_utils_fake_cython.html'
p515
sg10
S'cython/utils/fake_cython'
p516
sg12
g13
(g14
g15
NtRp517
(dp518
g18
I1
sg19
I0
sg20
I31
sg21
I2
sg22
I0
sg23
I5
sg24
I0
sbssg25
S'\x07+.\x0cKM\xbd\xfa`\x9f%E\xdc-o\xd4'
p519
ssS'cython_board'
p520
(dp521
g6
(dp522
g8
S'cython_board.html'
p523
sg10
S'cython/board'
p524
sg12
g13
(g14
g15
NtRp525
(dp526
g18
I1
sg19
I0
sg20
I416
sg21
I7
sg22
I0
sg23
I22
sg24
I0
sbssg25
S'\xc7\xa2\x98$r\xf1\x90v\xa6\xe5\x15\x90tcQ\xdd'
p527
ssS'scenes_elements_rect_element'
p528
(dp529
g6
(dp530
g8
S'scenes_elements_rect_element.html'
p531
sg10
S'scenes/elements/rect_element'
p532
sg12
g13
(g14
g15
NtRp533
(dp534
g18
I1
sg19
I0
sg20
I22
sg21
I0
sg22
I0
sg23
I22
sg24
I0
sbssg25
S'O\xcbk\x04\x85#\x8d\x9e\x17\xdee|\xe6\xe5K\x1f'
p535
ssS'tests_test_board'
p536
(dp537
g6
(dp538
g8
S'tests_test_board.html'
p539
sg10
S'tests/test_board'
p540
sg12
g13
(g14
g15
NtRp541
(dp542
g18
I1
sg19
I0
sg20
I237
sg21
I28
sg22
I0
sg23
I0
sg24
I0
sbssg25
S'g\xf0\xb1;\x18\x0b\xf6IJ\x1d;\x1c\x0c\xdfoh'
p543
ssS'scenes_elements_others'
p544
(dp545
g6
(dp546
g8
S'scenes_elements_others.html'
p547
sg10
S'scenes/elements/others'
p548
sg12
g13
(g14
g15
NtRp549
(dp550
g18
I1
sg19
I0
sg20
I39
sg21
I0
sg22
I0
sg23
I39
sg24
I0
sbssg25
S'\xdbS3P\x84^\x1c\xd7\x85\x11\x18\x07\xd9\xe7\xaf\x12'
p551
ssS'scenes_elements_pieces_element'
p552
(dp553
g6
(dp554
g8
S'scenes_elements_pieces_element.html'
p555
sg10
S'scenes/elements/pieces_element'
p556
sg12
g13
(g14
g15
NtRp557
(dp558
g18
I1
sg19
I0
sg20
I23
sg21
I0
sg22
I0
sg23
I23
sg24
I0
sbssg25
S'\x9f>\x130\xb9;\xdc\x01\x11\xf3\x87\x04\xcd\xf4F\xf7'
p559
ssS'timers_base'
p560
(dp561
g6
(dp562
g8
S'timers_base.html'
p563
sg10
S'timers/base'
p564
sg12
g13
(g14
g15
NtRp565
(dp566
g18
I1
sg19
I0
sg20
I29
sg21
I2
sg22
I0
sg23
I29
sg24
I0
sbssg25
S'\xae\xd8-\x127\xcf\x0f\xd8n\xc3\xce\x18\x1e\xce?{'
p567
ssS'scenes_interfaces___init__'
p568
(dp569
g6
(dp570
g8
S'scenes_interfaces___init__.html'
p571
sg10
S'scenes/interfaces/__init__'
p572
sg12
g13
(g14
g15
NtRp573
(dp574
g18
I1
sg19
I0
sg20
I1
sg21
I0
sg22
I0
sg23
I1
sg24
I0
sbssg25
S'[e\xad\xe9\xf33>i\xf3\xb6\xaf\x9dp9w\x82'
p575
ssS'scenes_end_menu'
p576
(dp577
g6
(dp578
g8
S'scenes_end_menu.html'
p579
sg10
S'scenes/end_menu'
p580
sg12
g13
(g14
g15
NtRp581
(dp582
g18
I1
sg19
I0
sg20
I43
sg21
I0
sg22
I0
sg23
I43
sg24
I0
sbssg25
S'Fp\x19\x1a\xae\x9c\x86Y\xe9)\x01\xd9\x02\x91$\x19'
p583
ssS'game_elements_input_player'
p584
(dp585
g6
(dp586
g8
S'game_elements_input_player.html'
p587
sg10
S'game_elements/input_player'
p588
sg12
g13
(g14
g15
NtRp589
(dp590
g18
I1
sg19
I0
sg20
I15
sg21
I0
sg22
I0
sg23
I0
sg24
I0
sbssg25
S'%\xf4\x00i\xde\x93\x99\xe1\xb3\x88\xae%LV8\xbf'
p591
ssS'tests_test_ai'
p592
(dp593
g6
(dp594
g8
S'tests_test_ai.html'
p595
sg10
S'tests/test_ai'
p596
sg12
g13
(g14
g15
NtRp597
(dp598
g18
I1
sg19
I0
sg20
I32
sg21
I1
sg22
I0
sg23
I0
sg24
I0
sbssg25
S'1\xc2<\xd59V;\xb4\xce\x9chA\xc7ao^'
p599
ssS'consts_colors'
p600
(dp601
g6
(dp602
g8
S'consts_colors.html'
p603
sg10
S'consts/colors'
p604
sg12
g13
(g14
g15
NtRp605
(dp606
g18
I1
sg19
I0
sg20
I4
sg21
I0
sg22
I0
sg23
I0
sg24
I0
sbssg25
S'\x17D\x13\xa1_\xf1F3\x1e\x95\xcb\xd3-=#\xbf'
p607
sssS'version'
p608
S'3.7.1'
p609
sS'settings'
p610
S'b\xecT\xc8\x12\xf8\xccTn[^\xe2u\x92|\x9d'
p611
sS'format'
p612
I1
s.